target datalayout = "e-m:e-p270:32:32-p271:32:32-p272:64:64-i64:64-i128:128-f80:128-n8:16:32:64-S128"
target triple = "x86_64-pc-linux-gnu"

%struct.H5E_cls_t = type { i8, ptr, ptr, ptr }

@H5E_ERROR_g = global i64 -1, align 8
@H5E_RESOURCE_g = global i64 -1, align 8
@H5E_CANTRELEASE_g = global i64 -1, align 8
@H5E_NOSPACE_g = global i64 -1, align 8
@H5E_init_g = external global i8, align 1
@H5_libterm_g = external global i8, align 1
@.str.1 = private unnamed_addr constant [100 x i8] c"generated/home/dtcxzyw/WorkSpace/Projects/compilers/llvm-opt-benchmark/bench/hdf5/hdf5/src/H5Eint.c\00", align 1
@__func__.H5E__register_class = private unnamed_addr constant [20 x i8] c"H5E__register_class\00", align 1
@.str.8 = private unnamed_addr constant [25 x i8] c"memory allocation failed\00", align 1
@.str.9 = private unnamed_addr constant [27 x i8] c"unable to free error class\00", align 1
@H5_H5E_cls_t_reg_free_list = internal global { i8, [3 x i8], i32, i32, [4 x i8], ptr, i64, ptr } { i8 0, [3 x i8] zeroinitializer, i32 0, i32 0, [4 x i8] zeroinitializer, ptr @.str.384, i64 32, ptr null }, align 8

; Function Attrs: nounwind uwtable
define internal i32 @H5E__free_class(ptr noundef %0) #0 {
  %2 = alloca ptr, align 8
  store ptr %0, ptr %2, align 8, !tbaa !32
  %3 = load i8, ptr @H5E_init_g, align 1, !tbaa !7, !range !9, !noundef !10
  %4 = trunc i8 %3 to i1
  br i1 %4, label %9, label %5

5:                                                ; preds = %1
  %6 = load i8, ptr @H5_libterm_g, align 1, !tbaa !7, !range !9, !noundef !10
  %7 = trunc i8 %6 to i1
  %8 = xor i1 %7, true
  br label %9

9:                                                ; preds = %5, %1
  %10 = phi i1 [ true, %1 ], [ %8, %5 ]
  %11 = xor i1 %10, true
  %12 = xor i1 %11, true
  %13 = zext i1 %12 to i32
  %14 = sext i32 %13 to i64
  %15 = call i64 @llvm.expect.i64(i64 %14, i64 1)
  %16 = icmp ne i64 %15, 0
  br i1 %16, label %17, label %44

17:                                               ; preds = %9
  %18 = load ptr, ptr %2, align 8, !tbaa !32
  %19 = getelementptr inbounds nuw %struct.H5E_cls_t, ptr %18, i32 0, i32 0
  %20 = load i8, ptr %19, align 8, !tbaa !34, !range !9, !noundef !10
  %21 = trunc i8 %20 to i1
  br i1 %21, label %22, label %43

22:                                               ; preds = %17
  %23 = load ptr, ptr %2, align 8, !tbaa !32
  %24 = getelementptr inbounds nuw %struct.H5E_cls_t, ptr %23, i32 0, i32 1
  %25 = load ptr, ptr %24, align 8, !tbaa !36
  %26 = call ptr @H5MM_xfree_const(ptr noundef %25)
  %27 = load ptr, ptr %2, align 8, !tbaa !32
  %28 = getelementptr inbounds nuw %struct.H5E_cls_t, ptr %27, i32 0, i32 1
  store ptr %26, ptr %28, align 8, !tbaa !36
  %29 = load ptr, ptr %2, align 8, !tbaa !32
  %30 = getelementptr inbounds nuw %struct.H5E_cls_t, ptr %29, i32 0, i32 2
  %31 = load ptr, ptr %30, align 8, !tbaa !37
  %32 = call ptr @H5MM_xfree_const(ptr noundef %31)
  %33 = load ptr, ptr %2, align 8, !tbaa !32
  %34 = getelementptr inbounds nuw %struct.H5E_cls_t, ptr %33, i32 0, i32 2
  store ptr %32, ptr %34, align 8, !tbaa !37
  %35 = load ptr, ptr %2, align 8, !tbaa !32
  %36 = getelementptr inbounds nuw %struct.H5E_cls_t, ptr %35, i32 0, i32 3
  %37 = load ptr, ptr %36, align 8, !tbaa !38
  %38 = call ptr @H5MM_xfree_const(ptr noundef %37)
  %39 = load ptr, ptr %2, align 8, !tbaa !32
  %40 = getelementptr inbounds nuw %struct.H5E_cls_t, ptr %39, i32 0, i32 3
  store ptr %38, ptr %40, align 8, !tbaa !38
  %41 = load ptr, ptr %2, align 8, !tbaa !32
  %42 = call ptr @H5FL_reg_free(ptr noundef @H5_H5E_cls_t_reg_free_list, ptr noundef %41)
  store ptr %42, ptr %2, align 8, !tbaa !32
  br label %43

43:                                               ; preds = %22, %17
  br label %44

44:                                               ; preds = %43, %9
  ret i32 0
}

; Function Attrs: nounwind uwtable
define ptr @H5E__register_class(ptr noundef %0, ptr noundef %1, ptr noundef %2) #0 {
  %4 = alloca ptr, align 8
  %5 = alloca ptr, align 8
  %6 = alloca ptr, align 8
  %7 = alloca ptr, align 8
  %8 = alloca ptr, align 8
  %9 = alloca i8, align 1
  store ptr %0, ptr %4, align 8, !tbaa !13
  store ptr %1, ptr %5, align 8, !tbaa !13
  store ptr %2, ptr %6, align 8, !tbaa !13
  call void @llvm.lifetime.start.p0(i64 8, ptr %7) #9
  store ptr null, ptr %7, align 8, !tbaa !32
  call void @llvm.lifetime.start.p0(i64 8, ptr %8) #9
  store ptr null, ptr %8, align 8, !tbaa !32
  call void @llvm.lifetime.start.p0(i64 1, ptr %9) #9
  store i8 0, ptr %9, align 1, !tbaa !7
  %10 = load i8, ptr @H5E_init_g, align 1, !tbaa !7, !range !9, !noundef !10
  %11 = trunc i8 %10 to i1
  br i1 %11, label %16, label %12

12:                                               ; preds = %3
  %13 = load i8, ptr @H5_libterm_g, align 1, !tbaa !7, !range !9, !noundef !10
  %14 = trunc i8 %13 to i1
  %15 = xor i1 %14, true
  br label %16

16:                                               ; preds = %12, %3
  %17 = phi i1 [ true, %3 ], [ %15, %12 ]
  %18 = xor i1 %17, true
  %19 = xor i1 %18, true
  %20 = zext i1 %19 to i32
  %21 = sext i32 %20 to i64
  %22 = call i64 @llvm.expect.i64(i64 %21, i64 1)
  %23 = icmp ne i64 %22, 0
  br i1 %23, label %24, label %153

24:                                               ; preds = %16
  %25 = call noalias ptr @H5FL_reg_calloc(ptr noundef @H5_H5E_cls_t_reg_free_list)
  store ptr %25, ptr %7, align 8, !tbaa !32
  %26 = icmp eq ptr null, %25
  br i1 %26, label %27, label %46

27:                                               ; preds = %24
  br label %28

28:                                               ; preds = %27
  br label %29

29:                                               ; preds = %28
  br label %30

30:                                               ; preds = %29
  %31 = load i64, ptr @H5E_RESOURCE_g, align 8, !tbaa !11
  %32 = load i64, ptr @H5E_NOSPACE_g, align 8, !tbaa !11
  %33 = call i32 (ptr, ptr, i32, i64, i64, ptr, ...) @H5E_printf_stack(ptr noundef @.str.1, ptr noundef @__func__.H5E__register_class, i32 noundef 488, i64 noundef %31, i64 noundef %32, ptr noundef @.str.8)
  br label %34

34:                                               ; preds = %30
  br label %35

35:                                               ; preds = %34
  store i8 1, ptr %9, align 1, !tbaa !7
  %36 = load i8, ptr %9, align 1, !tbaa !7, !range !9, !noundef !10
  %37 = trunc i8 %36 to i1
  %38 = zext i1 %37 to i8
  store i8 %38, ptr %9, align 1, !tbaa !7
  br label %39

39:                                               ; preds = %35
  br label %40

40:                                               ; preds = %39
  br label %41

41:                                               ; preds = %40
  store ptr null, ptr %8, align 8, !tbaa !32
  br label %125

42:                                               ; No predecessors!
  br label %43

43:                                               ; preds = %42
  br label %44

44:                                               ; preds = %43
  br label %45

45:                                               ; preds = %44
  br label %46

46:                                               ; preds = %45, %24
  %47 = load ptr, ptr %7, align 8, !tbaa !32
  %48 = getelementptr inbounds nuw %struct.H5E_cls_t, ptr %47, i32 0, i32 0
  store i8 1, ptr %48, align 8, !tbaa !34
  %49 = load ptr, ptr %4, align 8, !tbaa !13
  %50 = call noalias ptr @strdup(ptr noundef %49) #9
  %51 = load ptr, ptr %7, align 8, !tbaa !32
  %52 = getelementptr inbounds nuw %struct.H5E_cls_t, ptr %51, i32 0, i32 1
  store ptr %50, ptr %52, align 8, !tbaa !36
  %53 = icmp eq ptr null, %50
  br i1 %53, label %54, label %73

54:                                               ; preds = %46
  br label %55

55:                                               ; preds = %54
  br label %56

56:                                               ; preds = %55
  br label %57

57:                                               ; preds = %56
  %58 = load i64, ptr @H5E_RESOURCE_g, align 8, !tbaa !11
  %59 = load i64, ptr @H5E_NOSPACE_g, align 8, !tbaa !11
  %60 = call i32 (ptr, ptr, i32, i64, i64, ptr, ...) @H5E_printf_stack(ptr noundef @.str.1, ptr noundef @__func__.H5E__register_class, i32 noundef 495, i64 noundef %58, i64 noundef %59, ptr noundef @.str.8)
  br label %61

61:                                               ; preds = %57
  br label %62

62:                                               ; preds = %61
  store i8 1, ptr %9, align 1, !tbaa !7
  %63 = load i8, ptr %9, align 1, !tbaa !7, !range !9, !noundef !10
  %64 = trunc i8 %63 to i1
  %65 = zext i1 %64 to i8
  store i8 %65, ptr %9, align 1, !tbaa !7
  br label %66

66:                                               ; preds = %62
  br label %67

67:                                               ; preds = %66
  br label %68

68:                                               ; preds = %67
  store ptr null, ptr %8, align 8, !tbaa !32
  br label %125

69:                                               ; No predecessors!
  br label %70

70:                                               ; preds = %69
  br label %71

71:                                               ; preds = %70
  br label %72

72:                                               ; preds = %71
  br label %73

73:                                               ; preds = %72, %46
  %74 = load ptr, ptr %5, align 8, !tbaa !13
  %75 = call noalias ptr @strdup(ptr noundef %74) #9
  %76 = load ptr, ptr %7, align 8, !tbaa !32
  %77 = getelementptr inbounds nuw %struct.H5E_cls_t, ptr %76, i32 0, i32 2
  store ptr %75, ptr %77, align 8, !tbaa !37
  %78 = icmp eq ptr null, %75
  br i1 %78, label %79, label %98

79:                                               ; preds = %73
  br label %80

80:                                               ; preds = %79
  br label %81

81:                                               ; preds = %80
  br label %82

82:                                               ; preds = %81
  %83 = load i64, ptr @H5E_RESOURCE_g, align 8, !tbaa !11
  %84 = load i64, ptr @H5E_NOSPACE_g, align 8, !tbaa !11
  %85 = call i32 (ptr, ptr, i32, i64, i64, ptr, ...) @H5E_printf_stack(ptr noundef @.str.1, ptr noundef @__func__.H5E__register_class, i32 noundef 497, i64 noundef %83, i64 noundef %84, ptr noundef @.str.8)
  br label %86

86:                                               ; preds = %82
  br label %87

87:                                               ; preds = %86
  store i8 1, ptr %9, align 1, !tbaa !7
  %88 = load i8, ptr %9, align 1, !tbaa !7, !range !9, !noundef !10
  %89 = trunc i8 %88 to i1
  %90 = zext i1 %89 to i8
  store i8 %90, ptr %9, align 1, !tbaa !7
  br label %91

91:                                               ; preds = %87
  br label %92

92:                                               ; preds = %91
  br label %93

93:                                               ; preds = %92
  store ptr null, ptr %8, align 8, !tbaa !32
  br label %125

94:                                               ; No predecessors!
  br label %95

95:                                               ; preds = %94
  br label %96

96:                                               ; preds = %95
  br label %97

97:                                               ; preds = %96
  br label %98

98:                                               ; preds = %97, %73
  %99 = load ptr, ptr %6, align 8, !tbaa !13
  %100 = call noalias ptr @strdup(ptr noundef %99) #9
  %101 = load ptr, ptr %7, align 8, !tbaa !32
  %102 = getelementptr inbounds nuw %struct.H5E_cls_t, ptr %101, i32 0, i32 3
  store ptr %100, ptr %102, align 8, !tbaa !38
  %103 = icmp eq ptr null, %100
  br i1 %103, label %104, label %123

104:                                              ; preds = %98
  br label %105

105:                                              ; preds = %104
  br label %106

106:                                              ; preds = %105
  br label %107

107:                                              ; preds = %106
  %108 = load i64, ptr @H5E_RESOURCE_g, align 8, !tbaa !11
  %109 = load i64, ptr @H5E_NOSPACE_g, align 8, !tbaa !11
  %110 = call i32 (ptr, ptr, i32, i64, i64, ptr, ...) @H5E_printf_stack(ptr noundef @.str.1, ptr noundef @__func__.H5E__register_class, i32 noundef 499, i64 noundef %108, i64 noundef %109, ptr noundef @.str.8)
  br label %111

111:                                              ; preds = %107
  br label %112

112:                                              ; preds = %111
  store i8 1, ptr %9, align 1, !tbaa !7
  %113 = load i8, ptr %9, align 1, !tbaa !7, !range !9, !noundef !10
  %114 = trunc i8 %113 to i1
  %115 = zext i1 %114 to i8
  store i8 %115, ptr %9, align 1, !tbaa !7
  br label %116

116:                                              ; preds = %112
  br label %117

117:                                              ; preds = %116
  br label %118

118:                                              ; preds = %117
  store ptr null, ptr %8, align 8, !tbaa !32
  br label %125

119:                                              ; No predecessors!
  br label %120

120:                                              ; preds = %119
  br label %121

121:                                              ; preds = %120
  br label %122

122:                                              ; preds = %121
  br label %123

123:                                              ; preds = %122, %98
  %124 = load ptr, ptr %7, align 8, !tbaa !32
  store ptr %124, ptr %8, align 8, !tbaa !32
  br label %125

125:                                              ; preds = %123, %118, %93, %68, %41
  %126 = load ptr, ptr %8, align 8, !tbaa !32
  %127 = icmp ne ptr %126, null
  br i1 %127, label %152, label %128

128:                                              ; preds = %125
  %129 = load ptr, ptr %7, align 8, !tbaa !32
  %130 = icmp ne ptr %129, null
  br i1 %130, label %131, label %151

131:                                              ; preds = %128
  %132 = load ptr, ptr %7, align 8, !tbaa !32
  %133 = call i32 @H5E__free_class(ptr noundef %132)
  %134 = icmp slt i32 %133, 0
  br i1 %134, label %135, label %151

135:                                              ; preds = %131
  br label %136

136:                                              ; preds = %135
  br label %137

137:                                              ; preds = %136
  br label %138

138:                                              ; preds = %137
  %139 = load i64, ptr @H5E_ERROR_g, align 8, !tbaa !11
  %140 = load i64, ptr @H5E_CANTRELEASE_g, align 8, !tbaa !11
  %141 = call i32 (ptr, ptr, i32, i64, i64, ptr, ...) @H5E_printf_stack(ptr noundef @.str.1, ptr noundef @__func__.H5E__register_class, i32 noundef 507, i64 noundef %139, i64 noundef %140, ptr noundef @.str.9)
  br label %142

142:                                              ; preds = %138
  br label %143

143:                                              ; preds = %142
  store i8 1, ptr %9, align 1, !tbaa !7
  %144 = load i8, ptr %9, align 1, !tbaa !7, !range !9, !noundef !10
  %145 = trunc i8 %144 to i1
  %146 = zext i1 %145 to i8
  store i8 %146, ptr %9, align 1, !tbaa !7
  br label %147

147:                                              ; preds = %143
  br label %148

148:                                              ; preds = %147
  store ptr null, ptr %8, align 8, !tbaa !32
  br label %149

149:                                              ; preds = %148
  br label %150

150:                                              ; preds = %149
  br label %151

151:                                              ; preds = %150, %131, %128
  br label %152

152:                                              ; preds = %151, %125
  br label %153

153:                                              ; preds = %152, %16
  %154 = load ptr, ptr %8, align 8, !tbaa !32
  call void @llvm.lifetime.end.p0(i64 1, ptr %9) #9
  call void @llvm.lifetime.end.p0(i64 8, ptr %8) #9
  call void @llvm.lifetime.end.p0(i64 8, ptr %7) #9
  ret ptr %154
}