; Function Attrs: nounwind uwtable
define ptr @H5E__register_class(ptr noundef readonly captures(none) %0, ptr noundef readonly captures(none) %1, ptr noundef readonly captures(none) %2) local_unnamed_addr #0 {
  %4 = load i8, ptr @H5E_init_g, align 1, !tbaa !3, !range !7, !noundef !8
  %5 = trunc nuw i8 %4 to i1
  %6 = load i8, ptr @H5_libterm_g, align 1, !range !7
  %7 = trunc nuw i8 %6 to i1
  %8 = xor i1 %7, true
  %9 = select i1 %5, i1 true, i1 %8
  br i1 %9, label %10, label %H5E__free_class.exit, !prof !9

10:                                               ; preds = %3
  %11 = tail call noalias ptr @H5FL_reg_calloc(ptr noundef nonnull @H5_H5E_cls_t_reg_free_list) #16
  %12 = icmp eq ptr %11, null
  br i1 %12, label %13, label %17

13:                                               ; preds = %10
  %14 = load i64, ptr @H5E_RESOURCE_g, align 8, !tbaa !10
  %15 = load i64, ptr @H5E_NOSPACE_g, align 8, !tbaa !10
  %16 = tail call i32 (ptr, ptr, i32, i64, i64, ptr, ...) @H5E_printf_stack(ptr noundef nonnull @.str.1, ptr noundef nonnull @__func__.H5E__register_class, i32 noundef 488, i64 noundef %14, i64 noundef %15, ptr noundef nonnull @.str.8)
  br label %H5E__free_class.exit

17:                                               ; preds = %10
  store i8 1, ptr %11, align 8, !tbaa !38
  %18 = tail call noalias ptr @strdup(ptr noundef %0) #16
  %19 = getelementptr inbounds nuw i8, ptr %11, i64 8
  store ptr %18, ptr %19, align 8, !tbaa !40
  %20 = icmp eq ptr %18, null
  br i1 %20, label %29, label %21

21:                                               ; preds = %17
  %22 = tail call noalias ptr @strdup(ptr noundef %1) #16
  %23 = getelementptr inbounds nuw i8, ptr %11, i64 16
  store ptr %22, ptr %23, align 8, !tbaa !41
  %24 = icmp eq ptr %22, null
  br i1 %24, label %29, label %25

25:                                               ; preds = %21
  %26 = tail call noalias ptr @strdup(ptr noundef %2) #16
  %27 = getelementptr inbounds nuw i8, ptr %11, i64 24
  store ptr %26, ptr %27, align 8, !tbaa !42
  %28 = icmp eq ptr %26, null
  br i1 %28, label %29, label %H5E__free_class.exit

29:                                               ; preds = %25, %21, %17
  %.sink = phi i32 [ 495, %17 ], [ 497, %21 ], [ 499, %25 ]
  %30 = load i64, ptr @H5E_RESOURCE_g, align 8, !tbaa !10
  %31 = load i64, ptr @H5E_NOSPACE_g, align 8, !tbaa !10
  %32 = tail call i32 (ptr, ptr, i32, i64, i64, ptr, ...) @H5E_printf_stack(ptr noundef nonnull @.str.1, ptr noundef nonnull @__func__.H5E__register_class, i32 noundef %.sink, i64 noundef %30, i64 noundef %31, ptr noundef nonnull @.str.8)
  %33 = load i8, ptr @H5E_init_g, align 1, !tbaa !3, !range !7, !noundef !8
  %34 = trunc nuw i8 %33 to i1
  %35 = load i8, ptr @H5_libterm_g, align 1, !range !7
  %36 = trunc nuw i8 %35 to i1
  %37 = xor i1 %36, true
  %38 = select i1 %34, i1 true, i1 %37
  br i1 %38, label %39, label %H5E__free_class.exit, !prof !9

39:                                               ; preds = %29
  %40 = tail call ptr @H5MM_xfree_const(ptr noundef %18) #16
  store ptr %40, ptr %19, align 8, !tbaa !40
  %41 = getelementptr inbounds nuw i8, ptr %11, i64 16
  %42 = load ptr, ptr %41, align 8, !tbaa !41
  %43 = tail call ptr @H5MM_xfree_const(ptr noundef %42) #16
  store ptr %43, ptr %41, align 8, !tbaa !41
  %44 = getelementptr inbounds nuw i8, ptr %11, i64 24
  %45 = load ptr, ptr %44, align 8, !tbaa !42
  %46 = tail call ptr @H5MM_xfree_const(ptr noundef %45) #16
  store ptr %46, ptr %44, align 8, !tbaa !42
  %47 = tail call ptr @H5FL_reg_free(ptr noundef nonnull @H5_H5E_cls_t_reg_free_list, ptr noundef nonnull %11) #16
  br label %H5E__free_class.exit

H5E__free_class.exit:                             ; preds = %13, %25, %39, %29, %3
  %.0 = phi ptr [ null, %3 ], [ null, %29 ], [ null, %39 ], [ %11, %25 ], [ null, %13 ]
  ret ptr %.0
}